; Function Attrs: mustprogress nofree norecurse nosync nounwind willreturn memory(read, inaccessiblemem: none) uwtable
define range(i32 -1, 2) i32 @Abc_NodeCompareLevelsInc(ptr noundef readonly captures(none) %0, ptr noundef readonly captures(none) %1) local_unnamed_addr #6 {
  %3 = load ptr, ptr @s_pLeaves, align 8, !tbaa !56
  %4 = load i32, ptr %0, align 4, !tbaa !40
  %5 = getelementptr i8, ptr %3, i64 8
  %.val8 = load ptr, ptr %5, align 8, !tbaa !26
  %6 = sext i32 %4 to i64
  %7 = getelementptr inbounds ptr, ptr %.val8, i64 %6
  %8 = load ptr, ptr %7, align 8, !tbaa !27
  %9 = load i32, ptr %1, align 4, !tbaa !40
  %10 = sext i32 %9 to i64
  %11 = getelementptr inbounds ptr, ptr %.val8, i64 %10
  %12 = load ptr, ptr %11, align 8, !tbaa !27
  %13 = getelementptr inbounds nuw i8, ptr %8, i64 20
  %14 = load i32, ptr %13, align 4
  %15 = lshr i32 %14, 12
  %16 = getelementptr inbounds nuw i8, ptr %12, i64 20
  %17 = load i32, ptr %16, align 4
  %18 = lshr i32 %17, 12
  %.0 = tail call i32 @llvm.ucmp.i32.i32(i32 %15, i32 %18)
  ret i32 %.0
}